target datalayout = "e-m:e-p270:32:32-p271:32:32-p272:64:64-i64:64-i128:128-f80:128-n8:16:32:64-S128"
target triple = "x86_64-pc-linux-gnu"

%struct.dt_iop_roi_t = type { i32, i32, i32, i32, float }

@__const._color_picker_work_4ch.low = private unnamed_addr constant [4 x float] [float 0x47EFFFFFE0000000, float 0x47EFFFFFE0000000, float 0x47EFFFFFE0000000, float 0x47EFFFFFE0000000], align 16
@__const._color_picker_work_4ch.high = private unnamed_addr constant [4 x float] [float 0xC7EFFFFFE0000000, float 0xC7EFFFFFE0000000, float 0xC7EFFFFFE0000000, float 0xC7EFFFFFE0000000], align 16

; Function Attrs: inlinehint nounwind uwtable
define internal i64 @_box_size(ptr noundef %0) #4 {
  %2 = alloca ptr, align 8
  store ptr %0, ptr %2, align 8, !tbaa !68
  %3 = load ptr, ptr %2, align 8, !tbaa !68
  %4 = getelementptr inbounds i32, ptr %3, i64 3
  %5 = load i32, ptr %4, align 4, !tbaa !11
  %6 = load ptr, ptr %2, align 8, !tbaa !68
  %7 = getelementptr inbounds i32, ptr %6, i64 1
  %8 = load i32, ptr %7, align 4, !tbaa !11
  %9 = sub nsw i32 %5, %8
  %10 = load ptr, ptr %2, align 8, !tbaa !68
  %11 = getelementptr inbounds i32, ptr %10, i64 2
  %12 = load i32, ptr %11, align 4, !tbaa !11
  %13 = load ptr, ptr %2, align 8, !tbaa !68
  %14 = getelementptr inbounds i32, ptr %13, i64 0
  %15 = load i32, ptr %14, align 4, !tbaa !11
  %16 = sub nsw i32 %12, %15
  %17 = mul nsw i32 %9, %16
  %18 = sext i32 %17 to i64
  ret i64 %18
}

; Function Attrs: nounwind uwtable
define internal void @_color_picker_work_4ch(ptr noundef %0, ptr noundef %1, ptr noundef %2, ptr noundef %3, ptr noundef %4, ptr noundef %5, i64 noundef %6) #0 {
  %8 = alloca ptr, align 8
  %9 = alloca ptr, align 8
  %10 = alloca ptr, align 8
  %11 = alloca ptr, align 8
  %12 = alloca ptr, align 8
  %13 = alloca ptr, align 8
  %14 = alloca i64, align 8
  %15 = alloca i32, align 4
  %16 = alloca i64, align 8
  %17 = alloca i64, align 8
  %18 = alloca i64, align 8
  %19 = alloca i64, align 8
  %20 = alloca [4 x float], align 16
  %21 = alloca [4 x float], align 16
  %22 = alloca [4 x float], align 16
  %23 = alloca i64, align 8
  %24 = alloca i64, align 8
  %25 = alloca i64, align 8
  store ptr %0, ptr %8, align 8, !tbaa !13
  store ptr %1, ptr %9, align 8, !tbaa !64
  store ptr %2, ptr %10, align 8, !tbaa !68
  store ptr %3, ptr %11, align 8, !tbaa !13
  store ptr %4, ptr %12, align 8, !tbaa !126
  store ptr %5, ptr %13, align 8, !tbaa !126
  store i64 %6, ptr %14, align 8, !tbaa !122
  call void @llvm.lifetime.start.p0(i64 4, ptr %15) #10
  %26 = load ptr, ptr %9, align 8, !tbaa !64
  %27 = getelementptr inbounds nuw %struct.dt_iop_roi_t, ptr %26, i32 0, i32 2
  %28 = load i32, ptr %27, align 4, !tbaa !103
  store i32 %28, ptr %15, align 4, !tbaa !11
  call void @llvm.lifetime.start.p0(i64 8, ptr %16) #10
  %29 = load ptr, ptr %10, align 8, !tbaa !68
  %30 = call i64 @_box_size(ptr noundef %29)
  store i64 %30, ptr %16, align 8, !tbaa !122
  call void @llvm.lifetime.start.p0(i64 8, ptr %17) #10
  %31 = load ptr, ptr %10, align 8, !tbaa !68
  %32 = getelementptr inbounds i32, ptr %31, i64 2
  %33 = load i32, ptr %32, align 4, !tbaa !11
  %34 = load ptr, ptr %10, align 8, !tbaa !68
  %35 = getelementptr inbounds i32, ptr %34, i64 0
  %36 = load i32, ptr %35, align 4, !tbaa !11
  %37 = sub nsw i32 %33, %36
  %38 = sext i32 %37 to i64
  %39 = mul i64 4, %38
  store i64 %39, ptr %17, align 8, !tbaa !122
  call void @llvm.lifetime.start.p0(i64 8, ptr %18) #10
  %40 = load i32, ptr %15, align 4, !tbaa !11
  %41 = mul nsw i32 4, %40
  %42 = sext i32 %41 to i64
  store i64 %42, ptr %18, align 8, !tbaa !122
  call void @llvm.lifetime.start.p0(i64 8, ptr %19) #10
  %43 = load ptr, ptr %10, align 8, !tbaa !68
  %44 = getelementptr inbounds i32, ptr %43, i64 0
  %45 = load i32, ptr %44, align 4, !tbaa !11
  %46 = mul nsw i32 4, %45
  %47 = sext i32 %46 to i64
  store i64 %47, ptr %19, align 8, !tbaa !122
  call void @llvm.lifetime.start.p0(i64 16, ptr %20) #10
  call void @llvm.memset.p0.i64(ptr align 16 %20, i8 0, i64 16, i1 false)
  call void @llvm.lifetime.start.p0(i64 16, ptr %21) #10
  call void @llvm.memcpy.p0.p0.i64(ptr align 16 %21, ptr align 16 @__const._color_picker_work_4ch.low, i64 16, i1 false)
  call void @llvm.lifetime.start.p0(i64 16, ptr %22) #10
  call void @llvm.memcpy.p0.p0.i64(ptr align 16 %22, ptr align 16 @__const._color_picker_work_4ch.high, i64 16, i1 false)
  call void @llvm.lifetime.start.p0(i64 8, ptr %23) #10
  %48 = load ptr, ptr %10, align 8, !tbaa !68
  %49 = getelementptr inbounds i32, ptr %48, i64 1
  %50 = load i32, ptr %49, align 4, !tbaa !11
  %51 = sext i32 %50 to i64
  store i64 %51, ptr %23, align 8, !tbaa !122
  br label %52

52:                                               ; preds = %75, %7
  %53 = load i64, ptr %23, align 8, !tbaa !122
  %54 = load ptr, ptr %10, align 8, !tbaa !68
  %55 = getelementptr inbounds i32, ptr %54, i64 3
  %56 = load i32, ptr %55, align 4, !tbaa !11
  %57 = sext i32 %56 to i64
  %58 = icmp ult i64 %53, %57
  br i1 %58, label %60, label %59

59:                                               ; preds = %52
  call void @llvm.lifetime.end.p0(i64 8, ptr %23) #10
  br label %78

60:                                               ; preds = %52
  call void @llvm.lifetime.start.p0(i64 8, ptr %24) #10
  %61 = load i64, ptr %23, align 8, !tbaa !122
  %62 = load i64, ptr %18, align 8, !tbaa !122
  %63 = mul i64 %61, %62
  %64 = load i64, ptr %19, align 8, !tbaa !122
  %65 = add i64 %63, %64
  store i64 %65, ptr %24, align 8, !tbaa !122
  %66 = load ptr, ptr %13, align 8, !tbaa !126
  %67 = getelementptr inbounds [4 x float], ptr %20, i64 0, i64 0
  %68 = getelementptr inbounds [4 x float], ptr %21, i64 0, i64 0
  %69 = getelementptr inbounds [4 x float], ptr %22, i64 0, i64 0
  %70 = load ptr, ptr %8, align 8, !tbaa !13
  %71 = load i64, ptr %24, align 8, !tbaa !122
  %72 = getelementptr inbounds nuw float, ptr %70, i64 %71
  %73 = load i64, ptr %17, align 8, !tbaa !122
  %74 = load ptr, ptr %12, align 8, !tbaa !126
  call void %66(ptr noundef %67, ptr noundef %68, ptr noundef %69, ptr noundef %72, i64 noundef %73, ptr noundef %74)
  call void @llvm.lifetime.end.p0(i64 8, ptr %24) #10
  br label %75

75:                                               ; preds = %60
  %76 = load i64, ptr %23, align 8, !tbaa !122
  %77 = add i64 %76, 1
  store i64 %77, ptr %23, align 8, !tbaa !122
  br label %52

78:                                               ; preds = %59
  call void @llvm.lifetime.start.p0(i64 8, ptr %25) #10
  store i64 0, ptr %25, align 8, !tbaa !122
  br label %79

79:                                               ; preds = %108, %78
  %80 = load i64, ptr %25, align 8, !tbaa !122
  %81 = icmp ult i64 %80, 4
  br i1 %81, label %83, label %82

82:                                               ; preds = %79
  call void @llvm.lifetime.end.p0(i64 8, ptr %25) #10
  br label %111

83:                                               ; preds = %79
  %84 = load i64, ptr %25, align 8, !tbaa !122
  %85 = getelementptr inbounds nuw [4 x float], ptr %20, i64 0, i64 %84
  %86 = load float, ptr %85, align 4, !tbaa !59
  %87 = load i64, ptr %16, align 8, !tbaa !122
  %88 = uitofp i64 %87 to float
  %89 = fdiv reassoc nsz arcp contract afn float %86, %88
  %90 = load ptr, ptr %11, align 8, !tbaa !13
  %91 = getelementptr inbounds [4 x float], ptr %90, i64 0
  %92 = load i64, ptr %25, align 8, !tbaa !122
  %93 = getelementptr inbounds nuw [4 x float], ptr %91, i64 0, i64 %92
  store float %89, ptr %93, align 4, !tbaa !59
  %94 = load i64, ptr %25, align 8, !tbaa !122
  %95 = getelementptr inbounds nuw [4 x float], ptr %21, i64 0, i64 %94
  %96 = load float, ptr %95, align 4, !tbaa !59
  %97 = load ptr, ptr %11, align 8, !tbaa !13
  %98 = getelementptr inbounds [4 x float], ptr %97, i64 1
  %99 = load i64, ptr %25, align 8, !tbaa !122
  %100 = getelementptr inbounds nuw [4 x float], ptr %98, i64 0, i64 %99
  store float %96, ptr %100, align 4, !tbaa !59
  %101 = load i64, ptr %25, align 8, !tbaa !122
  %102 = getelementptr inbounds nuw [4 x float], ptr %22, i64 0, i64 %101
  %103 = load float, ptr %102, align 4, !tbaa !59
  %104 = load ptr, ptr %11, align 8, !tbaa !13
  %105 = getelementptr inbounds [4 x float], ptr %104, i64 2
  %106 = load i64, ptr %25, align 8, !tbaa !122
  %107 = getelementptr inbounds nuw [4 x float], ptr %105, i64 0, i64 %106
  store float %103, ptr %107, align 4, !tbaa !59
  br label %108

108:                                              ; preds = %83
  %109 = load i64, ptr %25, align 8, !tbaa !122
  %110 = add i64 %109, 1
  store i64 %110, ptr %25, align 8, !tbaa !122
  br label %79

111:                                              ; preds = %82
  call void @llvm.lifetime.end.p0(i64 16, ptr %22) #10
  call void @llvm.lifetime.end.p0(i64 16, ptr %21) #10
  call void @llvm.lifetime.end.p0(i64 16, ptr %20) #10
  call void @llvm.lifetime.end.p0(i64 8, ptr %19) #10
  call void @llvm.lifetime.end.p0(i64 8, ptr %18) #10
  call void @llvm.lifetime.end.p0(i64 8, ptr %17) #10
  call void @llvm.lifetime.end.p0(i64 8, ptr %16) #10
  call void @llvm.lifetime.end.p0(i64 4, ptr %15) #10
  ret void
}