; Function Attrs: nounwind uwtable
define internal fastcc void @_color_picker_work_4ch(ptr noundef %0, i32 %.8.val, ptr noundef readonly captures(none) %1, ptr noundef writeonly captures(none) %2, ptr noundef %3, ptr noundef readonly captures(none) %4) unnamed_addr #0 {
  %6 = alloca [4 x float], align 16
  %7 = alloca [4 x float], align 16
  %8 = alloca [4 x float], align 16
  %9 = getelementptr inbounds nuw i8, ptr %1, i64 12
  %10 = load i32, ptr %9, align 4, !tbaa !110
  %11 = getelementptr inbounds nuw i8, ptr %1, i64 4
  %12 = load i32, ptr %11, align 4, !tbaa !110
  %13 = sub nsw i32 %10, %12
  %14 = getelementptr inbounds nuw i8, ptr %1, i64 8
  %15 = load i32, ptr %14, align 4, !tbaa !110
  %16 = load i32, ptr %1, align 4, !tbaa !110
  %17 = sub nsw i32 %15, %16
  %18 = mul nsw i32 %17, %13
  %19 = sext i32 %18 to i64
  %20 = sext i32 %17 to i64
  %21 = shl nsw i64 %20, 2
  %22 = shl nsw i32 %.8.val, 2
  %23 = sext i32 %22 to i64
  %24 = shl nsw i32 %16, 2
  %25 = sext i32 %24 to i64
  call void @llvm.lifetime.start.p0(i64 16, ptr nonnull %6) #14
  call void @llvm.memset.p0.i64(ptr noundef nonnull align 16 dereferenceable(16) %6, i8 0, i64 16, i1 false)
  call void @llvm.lifetime.start.p0(i64 16, ptr nonnull %7) #14
  call void @llvm.memcpy.p0.p0.i64(ptr noundef nonnull align 16 dereferenceable(16) %7, ptr noundef nonnull align 16 dereferenceable(16) @__const._color_picker_work_1ch.low, i64 16, i1 false)
  call void @llvm.lifetime.start.p0(i64 16, ptr nonnull %8) #14
  call void @llvm.memcpy.p0.p0.i64(ptr noundef nonnull align 16 dereferenceable(16) %8, ptr noundef nonnull align 16 dereferenceable(16) @__const._color_picker_work_1ch.high, i64 16, i1 false)
  %invariant.gep = getelementptr float, ptr %0, i64 %25
  %26 = icmp ult i32 %12, %10
  br i1 %26, label %.lr.ph.preheader, label %.preheader

.lr.ph.preheader:                                 ; preds = %5
  %27 = sext i32 %12 to i64
  br label %.lr.ph

.preheader:                                       ; preds = %.lr.ph, %5
  %28 = uitofp i64 %19 to float
  %29 = getelementptr inbounds nuw i8, ptr %2, i64 16
  %30 = getelementptr inbounds nuw i8, ptr %2, i64 32
  %31 = fdiv reassoc nsz arcp contract afn float 1.000000e+00, %28
  br label %38

.lr.ph:                                           ; preds = %.lr.ph.preheader, %.lr.ph
  %.0291 = phi i64 [ %33, %.lr.ph ], [ %27, %.lr.ph.preheader ]
  %32 = mul i64 %.0291, %23
  %gep = getelementptr float, ptr %invariant.gep, i64 %32
  call void %4(ptr noundef nonnull %6, ptr noundef nonnull %7, ptr noundef nonnull %8, ptr noundef %gep, i64 noundef %21, ptr noundef %3) #14, !callees !167
  %33 = add nuw i64 %.0291, 1
  %34 = load i32, ptr %9, align 4, !tbaa !110
  %35 = sext i32 %34 to i64
  %36 = icmp ult i64 %33, %35
  br i1 %36, label %.lr.ph, label %.preheader

37:                                               ; preds = %38
  call void @llvm.lifetime.end.p0(i64 16, ptr nonnull %8) #14
  call void @llvm.lifetime.end.p0(i64 16, ptr nonnull %7) #14
  call void @llvm.lifetime.end.p0(i64 16, ptr nonnull %6) #14
  ret void

38:                                               ; preds = %.preheader, %38
  %.02 = phi i64 [ 0, %.preheader ], [ %49, %38 ]
  %39 = getelementptr inbounds nuw [4 x float], ptr %6, i64 0, i64 %.02
  %40 = load float, ptr %39, align 4, !tbaa !58
  %41 = fmul reassoc nsz arcp contract afn float %40, %31
  %42 = getelementptr inbounds nuw [4 x float], ptr %2, i64 0, i64 %.02
  store float %41, ptr %42, align 4, !tbaa !58
  %43 = getelementptr inbounds nuw [4 x float], ptr %7, i64 0, i64 %.02
  %44 = load float, ptr %43, align 4, !tbaa !58
  %45 = getelementptr inbounds nuw [4 x float], ptr %29, i64 0, i64 %.02
  store float %44, ptr %45, align 4, !tbaa !58
  %46 = getelementptr inbounds nuw [4 x float], ptr %8, i64 0, i64 %.02
  %47 = load float, ptr %46, align 4, !tbaa !58
  %48 = getelementptr inbounds nuw [4 x float], ptr %30, i64 0, i64 %.02
  store float %47, ptr %48, align 4, !tbaa !58
  %49 = add nuw nsw i64 %.02, 1
  %exitcond.not = icmp eq i64 %49, 4
  br i1 %exitcond.not, label %37, label %38
}